; Function Attrs: mustprogress uwtable
define void @_ZN6icu_777CaseMap11utf8ToUpperEPKcjNS_11StringPieceERNS_8ByteSinkEPNS_5EditsER10UErrorCode(ptr noundef %0, i32 noundef %1, ptr %2, i32 %3, ptr noundef nonnull align 8 dereferenceable(8) %4, ptr noundef %5, ptr noundef nonnull align 4 dereferenceable(4) %6) local_unnamed_addr #1 align 2 {
  %8 = tail call i32 @ustrcase_getCaseLocale_77(ptr noundef %0)
  %9 = load i32, ptr %6, align 4, !tbaa !13
  %10 = icmp slt i32 %9, 1
  br i1 %10, label %11, label %_Z19ucasemap_mapUTF8_77ijPN6icu_7713BreakIteratorEPKciPFvijS1_PKhiRNS_8ByteSinkEPNS_5EditsER10UErrorCodeES7_S9_SB_.exit

11:                                               ; preds = %7
  %12 = icmp eq ptr %2, null
  %13 = icmp ne i32 %3, 0
  %or.cond.i = and i1 %12, %13
  %14 = icmp slt i32 %3, -1
  %or.cond3.i = or i1 %14, %or.cond.i
  br i1 %or.cond3.i, label %15, label %16

15:                                               ; preds = %11
  store i32 1, ptr %6, align 4, !tbaa !13
  br label %_Z19ucasemap_mapUTF8_77ijPN6icu_7713BreakIteratorEPKciPFvijS1_PKhiRNS_8ByteSinkEPNS_5EditsER10UErrorCodeES7_S9_SB_.exit

16:                                               ; preds = %11
  %17 = icmp eq i32 %3, -1
  br i1 %17, label %18, label %21

18:                                               ; preds = %16
  %19 = tail call i64 @strlen(ptr noundef nonnull dereferenceable(1) %2) #20
  %20 = trunc i64 %19 to i32
  br label %21

21:                                               ; preds = %18, %16
  %.0.i = phi i32 [ %20, %18 ], [ %3, %16 ]
  %22 = icmp ne ptr %5, null
  %23 = and i32 %1, 8192
  %24 = icmp eq i32 %23, 0
  %or.cond31.i = and i1 %24, %22
  br i1 %or.cond31.i, label %25, label %26

25:                                               ; preds = %21
  tail call void @_ZN6icu_775Edits5resetEv(ptr noundef nonnull align 8 dereferenceable(232) %5) #17
  br label %26

26:                                               ; preds = %25, %21
  tail call void @_ZL28ucasemap_internalUTF8ToUpperijPN6icu_7713BreakIteratorEPKhiRNS_8ByteSinkEPNS_5EditsER10UErrorCode(i32 noundef %8, i32 noundef %1, ptr poison, ptr noundef %2, i32 noundef %.0.i, ptr noundef nonnull align 8 dereferenceable(8) %4, ptr noundef %5, ptr noundef nonnull align 4 dereferenceable(4) %6)
  %27 = load ptr, ptr %4, align 8, !tbaa !21
  %28 = getelementptr inbounds nuw i8, ptr %27, i64 32
  %29 = load ptr, ptr %28, align 8
  tail call void %29(ptr noundef nonnull align 8 dereferenceable(8) %4)
  %30 = load i32, ptr %6, align 4, !tbaa !13
  %31 = icmp slt i32 %30, 1
  %or.cond5.i = and i1 %22, %31
  br i1 %or.cond5.i, label %32, label %_Z19ucasemap_mapUTF8_77ijPN6icu_7713BreakIteratorEPKciPFvijS1_PKhiRNS_8ByteSinkEPNS_5EditsER10UErrorCodeES7_S9_SB_.exit

32:                                               ; preds = %26
  %33 = tail call noundef signext i8 @_ZNK6icu_775Edits11copyErrorToER10UErrorCode(ptr noundef nonnull align 8 dereferenceable(232) %5, ptr noundef nonnull align 4 dereferenceable(4) %6)
  br label %_Z19ucasemap_mapUTF8_77ijPN6icu_7713BreakIteratorEPKciPFvijS1_PKhiRNS_8ByteSinkEPNS_5EditsER10UErrorCodeES7_S9_SB_.exit

_Z19ucasemap_mapUTF8_77ijPN6icu_7713BreakIteratorEPKciPFvijS1_PKhiRNS_8ByteSinkEPNS_5EditsER10UErrorCodeES7_S9_SB_.exit: ; preds = %7, %15, %26, %32
  ret void
}